target datalayout = "e-m:e-p270:32:32-p271:32:32-p272:64:64-i64:64-i128:128-f80:128-n8:16:32:64-S128"
target triple = "x86_64-pc-linux-gnu"

@TMPI_COMM_WORLD = external global ptr, align 8
@debug = external global ptr, align 8
@.str = private unnamed_addr constant [38 x i8] c"In gmx_physicalnode_id_hash: hash %d\0A\00", align 1

; Function Attrs: mustprogress uwtable
define noundef zeroext i1 @_Z19gmx_mpi_initializedv() #0 {
  %1 = alloca i32, align 4
  store i32 0, ptr %1, align 4
  %2 = call noundef i32 @_Z16tMPI_InitializedPi(ptr noundef %1)
  %3 = load i32, ptr %1, align 4
  %4 = icmp ne i32 %3, 0
  ret i1 %4
}

declare noundef i32 @_Z16tMPI_InitializedPi(ptr noundef) #1

; Function Attrs: mustprogress uwtable
define noundef i32 @_Z12gmx_node_numv() #0 {
  %1 = alloca i32, align 4
  %2 = alloca i32, align 4
  %3 = call noundef zeroext i1 @_Z19gmx_mpi_initializedv()
  br i1 %3, label %5, label %4

4:                                                ; preds = %0
  store i32 1, ptr %1, align 4
  br label %9

5:                                                ; preds = %0
  store i32 0, ptr %2, align 4
  %6 = load ptr, ptr @TMPI_COMM_WORLD, align 8
  %7 = call noundef i32 @_Z14tMPI_Comm_sizeP10tmpi_comm_Pi(ptr noundef %6, ptr noundef %2)
  %8 = load i32, ptr %2, align 4
  store i32 %8, ptr %1, align 4
  br label %9

9:                                                ; preds = %5, %4
  %10 = load i32, ptr %1, align 4
  ret i32 %10
}

declare noundef i32 @_Z14tMPI_Comm_sizeP10tmpi_comm_Pi(ptr noundef, ptr noundef) #1

; Function Attrs: mustprogress uwtable
define noundef i32 @_Z13gmx_node_rankv() #0 {
  %1 = alloca i32, align 4
  %2 = alloca i32, align 4
  %3 = call noundef zeroext i1 @_Z19gmx_mpi_initializedv()
  br i1 %3, label %5, label %4

4:                                                ; preds = %0
  store i32 0, ptr %1, align 4
  br label %9

5:                                                ; preds = %0
  store i32 0, ptr %2, align 4
  %6 = load ptr, ptr @TMPI_COMM_WORLD, align 8
  %7 = call noundef i32 @_Z14tMPI_Comm_rankP10tmpi_comm_Pi(ptr noundef %6, ptr noundef %2)
  %8 = load i32, ptr %2, align 4
  store i32 %8, ptr %1, align 4
  br label %9

9:                                                ; preds = %5, %4
  %10 = load i32, ptr %1, align 4
  ret i32 %10
}

declare noundef i32 @_Z14tMPI_Comm_rankP10tmpi_comm_Pi(ptr noundef, ptr noundef) #1

; Function Attrs: mustprogress uwtable
define noundef i32 @_Z24gmx_physicalnode_id_hashv() #0 {
  %1 = alloca i32, align 4
  store i32 0, ptr %1, align 4
  %2 = call noundef i32 @_ZL17mpi_hostname_hashv()
  store i32 %2, ptr %1, align 4
  %3 = load ptr, ptr @debug, align 8
  %4 = icmp ne ptr %3, null
  br i1 %4, label %5, label %9

5:                                                ; preds = %0
  %6 = load ptr, ptr @debug, align 8
  %7 = load i32, ptr %1, align 4
  %8 = call i32 (ptr, ptr, ...) @fprintf(ptr noundef %6, ptr noundef @.str, i32 noundef %7) #4
  br label %9

9:                                                ; preds = %5, %0
  %10 = load i32, ptr %1, align 4
  ret i32 %10
}

; Function Attrs: mustprogress nounwind uwtable
define internal noundef i32 @_ZL17mpi_hostname_hashv() #2 {
  %1 = alloca i32, align 4
  store i32 0, ptr %1, align 4
  store i32 0, ptr %1, align 4
  %2 = load i32, ptr %1, align 4
  ret i32 %2
}

; Function Attrs: nounwind
declare i32 @fprintf(ptr noundef, ptr noundef, ...) #3


!llvm.module.flags = !{!0, !1, !2, !3, !4}

!0 = !{i32 1, !"wchar_size", i32 4}
!1 = !{i32 7, !"openmp", i32 51}
!2 = !{i32 8, !"PIC Level", i32 2}
!3 = !{i32 7, !"uwtable", i32 2}
!4 = !{i32 7, !"frame-pointer", i32 2}
